target datalayout = "e-m:e-p270:32:32-p271:32:32-p272:64:64-i64:64-i128:128-f80:128-n8:16:32:64-S128"
target triple = "x86_64-pc-linux-gnu"

@negate = internal global [2 x i8] c"^\00", align 1
@.str.3 = private unnamed_addr constant [23 x i8] c"help-pmix-mca-base.txt\00", align 1
@.str.4 = private unnamed_addr constant [33 x i8] c"framework-param:too-many-negates\00", align 1

; Function Attrs: nounwind uwtable
define i32 @pmix_mca_base_component_parse_requested(ptr noundef %0, ptr noundef %1, ptr noundef %2) #0 {
  %4 = alloca i32, align 4
  %5 = alloca ptr, align 8
  %6 = alloca ptr, align 8
  %7 = alloca ptr, align 8
  %8 = alloca ptr, align 8
  %9 = alloca i32, align 4
  store ptr %0, ptr %5, align 8, !tbaa !3
  store ptr %1, ptr %6, align 8, !tbaa !42
  store ptr %2, ptr %7, align 8, !tbaa !44
  call void @llvm.lifetime.start.p0(i64 8, ptr %8) #12
  %10 = load ptr, ptr %5, align 8, !tbaa !3
  store ptr %10, ptr %8, align 8, !tbaa !3
  %11 = load ptr, ptr %7, align 8, !tbaa !44
  store ptr null, ptr %11, align 8, !tbaa !24
  %12 = load ptr, ptr %6, align 8, !tbaa !42
  store i8 1, ptr %12, align 1, !tbaa !10
  %13 = load ptr, ptr %5, align 8, !tbaa !3
  %14 = icmp eq ptr null, %13
  br i1 %14, label %19, label %15

15:                                               ; preds = %3
  %16 = load ptr, ptr %5, align 8, !tbaa !3
  %17 = call i64 @strlen(ptr noundef %16) #13
  %18 = icmp eq i64 0, %17
  br i1 %18, label %19, label %20

19:                                               ; preds = %15, %3
  store i32 0, ptr %4, align 4
  store i32 1, ptr %9, align 4
  br label %44

20:                                               ; preds = %15
  %21 = load ptr, ptr %5, align 8, !tbaa !3
  %22 = getelementptr inbounds i8, ptr %21, i64 0
  %23 = load i8, ptr %22, align 1, !tbaa !46
  %24 = sext i8 %23 to i32
  %25 = load i8, ptr @negate, align 1, !tbaa !46
  %26 = sext i8 %25 to i32
  %27 = icmp ne i32 %24, %26
  %28 = load ptr, ptr %6, align 8, !tbaa !42
  %29 = zext i1 %27 to i8
  store i8 %29, ptr %28, align 1, !tbaa !10
  %30 = load ptr, ptr %5, align 8, !tbaa !3
  %31 = call i64 @strspn(ptr noundef %30, ptr noundef @negate) #13
  %32 = load ptr, ptr %5, align 8, !tbaa !3
  %33 = getelementptr inbounds nuw i8, ptr %32, i64 %31
  store ptr %33, ptr %5, align 8, !tbaa !3
  %34 = load ptr, ptr %5, align 8, !tbaa !3
  %35 = call ptr @strstr(ptr noundef %34, ptr noundef @negate) #13
  %36 = icmp ne ptr null, %35
  br i1 %36, label %37, label %40

37:                                               ; preds = %20
  %38 = load ptr, ptr %8, align 8, !tbaa !3
  %39 = call i32 (ptr, ptr, i32, ...) @pmix_show_help(ptr noundef @.str.3, ptr noundef @.str.4, i32 noundef 1, ptr noundef %38)
  store i32 -1, ptr %4, align 4
  store i32 1, ptr %9, align 4
  br label %44

40:                                               ; preds = %20
  %41 = load ptr, ptr %5, align 8, !tbaa !3
  %42 = call ptr @PMIx_Argv_split(ptr noundef %41, i32 noundef 44)
  %43 = load ptr, ptr %7, align 8, !tbaa !44
  store ptr %42, ptr %43, align 8, !tbaa !24
  store i32 0, ptr %4, align 4
  store i32 1, ptr %9, align 4
  br label %44

44:                                               ; preds = %40, %37, %19
  call void @llvm.lifetime.end.p0(i64 8, ptr %8) #12
  %45 = load i32, ptr %4, align 4
  ret i32 %45
}