; Function Attrs: nounwind uwtable
define range(i32 -1, 1) i32 @pmix_mca_base_component_parse_requested(ptr noundef %0, ptr noundef writeonly captures(none) initializes((0, 1)) %1, ptr noundef writeonly captures(none) initializes((0, 8)) %2) local_unnamed_addr #0 {
  store ptr null, ptr %2, align 8, !tbaa !56
  store i8 1, ptr %1, align 1, !tbaa !45
  %4 = icmp eq ptr %0, null
  br i1 %4, label %18, label %5

5:                                                ; preds = %3
  %char0 = load i8, ptr %0, align 1
  %6 = icmp eq i8 %char0, 0
  br i1 %6, label %18, label %7

7:                                                ; preds = %5
  %8 = load i8, ptr @negate, align 1, !tbaa !24
  %9 = icmp ne i8 %char0, %8
  %10 = zext i1 %9 to i8
  store i8 %10, ptr %1, align 1, !tbaa !45
  %11 = tail call i64 @strspn(ptr noundef nonnull %0, ptr noundef nonnull @negate) #13
  %12 = getelementptr inbounds nuw i8, ptr %0, i64 %11
  %13 = tail call ptr @strstr(ptr noundef nonnull dereferenceable(1) %12, ptr noundef nonnull dereferenceable(1) @negate) #13
  %.not = icmp eq ptr %13, null
  br i1 %.not, label %16, label %14

14:                                               ; preds = %7
  %15 = tail call i32 (ptr, ptr, i32, ...) @pmix_show_help(ptr noundef nonnull @.str.3, ptr noundef nonnull @.str.4, i32 noundef 1, ptr noundef nonnull %0) #12
  br label %18

16:                                               ; preds = %7
  %17 = tail call ptr @PMIx_Argv_split(ptr noundef nonnull %12, i32 noundef 44) #12
  store ptr %17, ptr %2, align 8, !tbaa !56
  br label %18

18:                                               ; preds = %3, %5, %16, %14
  %.0 = phi i32 [ -1, %14 ], [ 0, %16 ], [ 0, %5 ], [ 0, %3 ]
  ret i32 %.0
}